
ex1：     文件格式 elf64-loongarch


Disassembly of section .plt:

0000000120000490 <.plt>:
   120000490:	1c00010e 	pcaddu12i	$r14,8(0x8)
   120000494:	0011bdad 	sub.d	$r13,$r13,$r15
   120000498:	28ede1cf 	ld.d	$r15,$r14,-1160(0xb78)
   12000049c:	02ff61ad 	addi.d	$r13,$r13,-40(0xfd8)
   1200004a0:	02ede1cc 	addi.d	$r12,$r14,-1160(0xb78)
   1200004a4:	004505ad 	srli.d	$r13,$r13,0x1
   1200004a8:	28c0218c 	ld.d	$r12,$r12,8(0x8)
   1200004ac:	4c0001e0 	jirl	$r0,$r15,0

00000001200004b0 <printf@plt>:
   1200004b0:	1c00010f 	pcaddu12i	$r15,8(0x8)
   1200004b4:	28eda1ef 	ld.d	$r15,$r15,-1176(0xb68)
   1200004b8:	1c00000d 	pcaddu12i	$r13,0
   1200004bc:	4c0001e0 	jirl	$r0,$r15,0

Disassembly of section .text:

00000001200004c0 <_start>:
   1200004c0:	00150089 	move	$r9,$r4
   1200004c4:	1c0000e4 	pcaddu12i	$r4,7(0x7)
   1200004c8:	03ae300c 	ori	$r12,$r0,0xb8c
   1200004cc:	1600000c 	lu32i.d	$r12,0
   1200004d0:	0300018c 	lu52i.d	$r12,$r12,0
   1200004d4:	380c3084 	ldx.d	$r4,$r4,$r12
   1200004d8:	28c00065 	ld.d	$r5,$r3,0
   1200004dc:	02c02066 	addi.d	$r6,$r3,8(0x8)
   1200004e0:	00451063 	srli.d	$r3,$r3,0x4
   1200004e4:	00411063 	slli.d	$r3,$r3,0x4
   1200004e8:	1c0000e7 	pcaddu12i	$r7,7(0x7)
   1200004ec:	03ad800c 	ori	$r12,$r0,0xb60
   1200004f0:	1600000c 	lu32i.d	$r12,0
   1200004f4:	0300018c 	lu52i.d	$r12,$r12,0
   1200004f8:	380c30e7 	ldx.d	$r7,$r7,$r12
   1200004fc:	1c0000e8 	pcaddu12i	$r8,7(0x7)
   120000500:	03acb00c 	ori	$r12,$r0,0xb2c
   120000504:	1600000c 	lu32i.d	$r12,0
   120000508:	0300018c 	lu52i.d	$r12,$r12,0
   12000050c:	380c3108 	ldx.d	$r8,$r8,$r12
   120000510:	0015006a 	move	$r10,$r3
   120000514:	1c0000e1 	pcaddu12i	$r1,7(0x7)
   120000518:	03ac900c 	ori	$r12,$r0,0xb24
   12000051c:	1600000c 	lu32i.d	$r12,0
   120000520:	0300018c 	lu52i.d	$r12,$r12,0
   120000524:	380c3021 	ldx.d	$r1,$r1,$r12
   120000528:	4c000021 	jirl	$r1,$r1,0
   12000052c:	1c0000e1 	pcaddu12i	$r1,7(0x7)
   120000530:	03ac500c 	ori	$r12,$r0,0xb14
   120000534:	1600000c 	lu32i.d	$r12,0
   120000538:	0300018c 	lu52i.d	$r12,$r12,0
   12000053c:	380c3021 	ldx.d	$r1,$r1,$r12
   120000540:	4c000021 	jirl	$r1,$r1,0
   120000544:	03400000 	andi	$r0,$r0,0x0
   120000548:	03400000 	andi	$r0,$r0,0x0
   12000054c:	03400000 	andi	$r0,$r0,0x0

0000000120000550 <deregister_tm_clones>:
   120000550:	02ffc063 	addi.d	$r3,$r3,-16(0xff0)
   120000554:	29c02076 	st.d	$r22,$r3,8(0x8)
   120000558:	02c04076 	addi.d	$r22,$r3,16(0x10)
   12000055c:	1c000104 	pcaddu12i	$r4,8(0x8)
   120000560:	02eb1084 	addi.d	$r4,$r4,-1340(0xac4)
   120000564:	1c00010c 	pcaddu12i	$r12,8(0x8)
   120000568:	02eaf18c 	addi.d	$r12,$r12,-1348(0xabc)
   12000056c:	58001d84 	beq	$r12,$r4,28(0x1c) # 120000588 <deregister_tm_clones+0x38>
   120000570:	1c00010c 	pcaddu12i	$r12,8(0x8)
   120000574:	28eb018c 	ld.d	$r12,$r12,-1344(0xac0)
   120000578:	40001180 	beqz	$r12,16(0x10) # 120000588 <deregister_tm_clones+0x38>
   12000057c:	28c02076 	ld.d	$r22,$r3,8(0x8)
   120000580:	02c04063 	addi.d	$r3,$r3,16(0x10)
   120000584:	4c000180 	jirl	$r0,$r12,0
   120000588:	28c02076 	ld.d	$r22,$r3,8(0x8)
   12000058c:	02c04063 	addi.d	$r3,$r3,16(0x10)
   120000590:	4c000020 	jirl	$r0,$r1,0
   120000594:	03400000 	andi	$r0,$r0,0x0
   120000598:	03400000 	andi	$r0,$r0,0x0
   12000059c:	03400000 	andi	$r0,$r0,0x0

00000001200005a0 <register_tm_clones>:
   1200005a0:	1c000104 	pcaddu12i	$r4,8(0x8)
   1200005a4:	02ea0084 	addi.d	$r4,$r4,-1408(0xa80)
   1200005a8:	1c000105 	pcaddu12i	$r5,8(0x8)
   1200005ac:	02e9e0a5 	addi.d	$r5,$r5,-1416(0xa78)
   1200005b0:	001190a5 	sub.d	$r5,$r5,$r4
   1200005b4:	00490ca5 	srai.d	$r5,$r5,0x3
   1200005b8:	02ffc063 	addi.d	$r3,$r3,-16(0xff0)
   1200005bc:	0045fcac 	srli.d	$r12,$r5,0x3f
   1200005c0:	29c02076 	st.d	$r22,$r3,8(0x8)
   1200005c4:	00109585 	add.d	$r5,$r12,$r5
   1200005c8:	02c04076 	addi.d	$r22,$r3,16(0x10)
   1200005cc:	004904a5 	srai.d	$r5,$r5,0x1
   1200005d0:	400020a0 	beqz	$r5,32(0x20) # 1200005f0 <register_tm_clones+0x50>
   1200005d4:	1c00010c 	pcaddu12i	$r12,8(0x8)
   1200005d8:	28ea118c 	ld.d	$r12,$r12,-1404(0xa84)
   1200005dc:	40001580 	beqz	$r12,20(0x14) # 1200005f0 <register_tm_clones+0x50>
   1200005e0:	28c02076 	ld.d	$r22,$r3,8(0x8)
   1200005e4:	02c04063 	addi.d	$r3,$r3,16(0x10)
   1200005e8:	4c000180 	jirl	$r0,$r12,0
   1200005ec:	03400000 	andi	$r0,$r0,0x0
   1200005f0:	28c02076 	ld.d	$r22,$r3,8(0x8)
   1200005f4:	02c04063 	addi.d	$r3,$r3,16(0x10)
   1200005f8:	4c000020 	jirl	$r0,$r1,0
   1200005fc:	03400000 	andi	$r0,$r0,0x0

0000000120000600 <__do_global_dtors_aux>:
   120000600:	02ff8063 	addi.d	$r3,$r3,-32(0xfe0)
   120000604:	29c04076 	st.d	$r22,$r3,16(0x10)
   120000608:	29c02077 	st.d	$r23,$r3,8(0x8)
   12000060c:	29c06061 	st.d	$r1,$r3,24(0x18)
   120000610:	02c08076 	addi.d	$r22,$r3,32(0x20)
   120000614:	1c000117 	pcaddu12i	$r23,8(0x8)
   120000618:	02e952f7 	addi.d	$r23,$r23,-1452(0xa54)
   12000061c:	2a0002ec 	ld.bu	$r12,$r23,0
   120000620:	44001180 	bnez	$r12,16(0x10) # 120000630 <__do_global_dtors_aux+0x30>
   120000624:	57ff2fff 	bl	-212(0xfffff2c) # 120000550 <deregister_tm_clones>
   120000628:	0280040c 	addi.w	$r12,$r0,1(0x1)
   12000062c:	290002ec 	st.b	$r12,$r23,0
   120000630:	28c06061 	ld.d	$r1,$r3,24(0x18)
   120000634:	28c04076 	ld.d	$r22,$r3,16(0x10)
   120000638:	28c02077 	ld.d	$r23,$r3,8(0x8)
   12000063c:	02c08063 	addi.d	$r3,$r3,32(0x20)
   120000640:	4c000020 	jirl	$r0,$r1,0
   120000644:	03400000 	andi	$r0,$r0,0x0
   120000648:	03400000 	andi	$r0,$r0,0x0
   12000064c:	03400000 	andi	$r0,$r0,0x0

0000000120000650 <frame_dummy>:
   120000650:	02ffc063 	addi.d	$r3,$r3,-16(0xff0)
   120000654:	29c02076 	st.d	$r22,$r3,8(0x8)
   120000658:	02c04076 	addi.d	$r22,$r3,16(0x10)
   12000065c:	28c02076 	ld.d	$r22,$r3,8(0x8)
   120000660:	02c04063 	addi.d	$r3,$r3,16(0x10)
   120000664:	53ff3fff 	b	-196(0xfffff3c) # 1200005a0 <register_tm_clones>
   120000668:	03400000 	andi	$r0,$r0,0x0
   12000066c:	03400000 	andi	$r0,$r0,0x0

0000000120000670 <main>:
   120000670:	02ffc063 	addi.d	$r3,$r3,-16(0xff0)
   120000674:	29c02061 	st.d	$r1,$r3,8(0x8)
   120000678:	1c00010c 	pcaddu12i	$r12,8(0x8)
   12000067c:	02e6218c 	addi.d	$r12,$r12,-1656(0x988)
   120000680:	28c00185 	ld.d	$r5,$r12,0
   120000684:	1c000004 	pcaddu12i	$r4,0
   120000688:	02c35084 	addi.d	$r4,$r4,212(0xd4)
   12000068c:	57fe27ff 	bl	-476(0xffffe24) # 1200004b0 <printf@plt>
   120000690:	28c02061 	ld.d	$r1,$r3,8(0x8)
   120000694:	02c04063 	addi.d	$r3,$r3,16(0x10)
   120000698:	4c000020 	jirl	$r0,$r1,0
   12000069c:	03400000 	andi	$r0,$r0,0x0

00000001200006a0 <__libc_csu_init>:
   1200006a0:	02ff0063 	addi.d	$r3,$r3,-64(0xfc0)
   1200006a4:	29c0c077 	st.d	$r23,$r3,48(0x30)
   1200006a8:	29c08079 	st.d	$r25,$r3,32(0x20)
   1200006ac:	1c0000f7 	pcaddu12i	$r23,7(0x7)
   1200006b0:	02de12f7 	addi.d	$r23,$r23,1924(0x784)
   1200006b4:	1c0000f9 	pcaddu12i	$r25,7(0x7)
   1200006b8:	02de1339 	addi.d	$r25,$r25,1924(0x784)
   1200006bc:	0011df39 	sub.d	$r25,$r25,$r23
   1200006c0:	29c0e061 	st.d	$r1,$r3,56(0x38)
   1200006c4:	29c0a078 	st.d	$r24,$r3,40(0x28)
   1200006c8:	29c0607a 	st.d	$r26,$r3,24(0x18)
   1200006cc:	29c0407b 	st.d	$r27,$r3,16(0x10)
   1200006d0:	29c0207c 	st.d	$r28,$r3,8(0x8)
   1200006d4:	00490f39 	srai.d	$r25,$r25,0x3
   1200006d8:	40003b20 	beqz	$r25,56(0x38) # 120000710 <__libc_csu_init+0x70>
   1200006dc:	001500dc 	move	$r28,$r6
   1200006e0:	001500bb 	move	$r27,$r5
   1200006e4:	0015009a 	move	$r26,$r4
   1200006e8:	00150018 	move	$r24,$r0
   1200006ec:	03400000 	andi	$r0,$r0,0x0
   1200006f0:	28c002ec 	ld.d	$r12,$r23,0
   1200006f4:	02c00718 	addi.d	$r24,$r24,1(0x1)
   1200006f8:	00150386 	move	$r6,$r28
   1200006fc:	00150365 	move	$r5,$r27
   120000700:	00150344 	move	$r4,$r26
   120000704:	02c022f7 	addi.d	$r23,$r23,8(0x8)
   120000708:	4c000181 	jirl	$r1,$r12,0
   12000070c:	5fffe738 	bne	$r25,$r24,-28(0x3ffe4) # 1200006f0 <__libc_csu_init+0x50>
   120000710:	28c0e061 	ld.d	$r1,$r3,56(0x38)
   120000714:	28c0c077 	ld.d	$r23,$r3,48(0x30)
   120000718:	28c0a078 	ld.d	$r24,$r3,40(0x28)
   12000071c:	28c08079 	ld.d	$r25,$r3,32(0x20)
   120000720:	28c0607a 	ld.d	$r26,$r3,24(0x18)
   120000724:	28c0407b 	ld.d	$r27,$r3,16(0x10)
   120000728:	28c0207c 	ld.d	$r28,$r3,8(0x8)
   12000072c:	02c10063 	addi.d	$r3,$r3,64(0x40)
   120000730:	4c000020 	jirl	$r0,$r1,0
   120000734:	03400000 	andi	$r0,$r0,0x0
   120000738:	03400000 	andi	$r0,$r0,0x0
   12000073c:	03400000 	andi	$r0,$r0,0x0

0000000120000740 <__libc_csu_fini>:
   120000740:	4c000020 	jirl	$r0,$r1,0
   120000744:	03400000 	andi	$r0,$r0,0x0
   120000748:	03400000 	andi	$r0,$r0,0x0
   12000074c:	03400000 	andi	$r0,$r0,0x0
